target datalayout = "e-m:e-p270:32:32-p271:32:32-p272:64:64-i64:64-i128:128-f80:128-n8:16:32:64-S128"
target triple = "x86_64-unknown-linux-gnu"

%struct.PCIDevice = type { %struct.DeviceState, i8, i8, ptr, ptr, ptr, ptr, ptr, i32, %struct.PCIReqIDCache, [64 x i8], [7 x %struct.PCIIORegion], %struct.AddressSpace, %struct.MemoryRegion, %struct.MemoryRegion, ptr, ptr, [3 x ptr], i8, i8, i32, i8, i32, ptr, ptr, ptr, ptr, ptr, ptr, %struct.MemoryRegion, %struct.MemoryRegion, %struct.MemoryRegion, ptr, i8, i32, i8, %struct.PCIExpressDevice, ptr, ptr, i32, i8, %struct.MemoryRegion, i32, ptr, ptr, ptr, ptr, ptr, i32 }
%struct.DeviceState = type { %struct.Object, ptr, ptr, i8, i8, i64, ptr, i32, i8, ptr, %struct.NamedGPIOListHead, %struct.NamedClockListHead, %struct.BusStateHead, i32, i32, i32, %struct.ResettableState, ptr, %struct.MemReentrancyGuard }
%struct.Object = type { ptr, ptr, ptr, i32, ptr }
%struct.NamedGPIOListHead = type { ptr }
%struct.NamedClockListHead = type { ptr }
%struct.BusStateHead = type { ptr }
%struct.ResettableState = type { i32, i8, i8 }
%struct.MemReentrancyGuard = type { i8 }
%struct.PCIReqIDCache = type { ptr, i32 }
%struct.PCIIORegion = type { i64, i64, i8, ptr, ptr }
%struct.AddressSpace = type { %struct.rcu_head, ptr, ptr, ptr, i32, i32, ptr, %union.anon, %union.anon.0 }
%struct.rcu_head = type { ptr, ptr }
%union.anon = type { %struct.QTailQLink }
%struct.QTailQLink = type { ptr, ptr }
%union.anon.0 = type { %struct.QTailQLink }
%struct.PCIExpressDevice = type { i8, i8, i8, i16, %struct.PCIEAERLog, i16, i16, i16, %struct.PCIESriovPF, %struct.PCIESriovVF }
%struct.PCIEAERLog = type { i16, i16, ptr }
%struct.PCIESriovPF = type { i16, [7 x i8], ptr, ptr }
%struct.PCIESriovVF = type { ptr, i16 }
%struct.MemoryRegion = type { %struct.Object, i8, i8, i8, i8, i8, i8, i8, i8, i8, i8, ptr, ptr, ptr, ptr, ptr, ptr, i32, i128, i64, ptr, i64, i8, i8, i8, i8, i8, ptr, i64, i32, %union.anon.1, %union.anon.2, %union.anon.3, ptr, i32, ptr, ptr, i8 }
%union.anon.1 = type { %struct.QTailQLink }
%union.anon.2 = type { %struct.QTailQLink }
%union.anon.3 = type { %struct.QTailQLink }
%struct.IVShmemState = type { %struct.PCIDevice, i32, ptr, %struct.CharBackend, i32, i32, i32, %struct.MemoryRegion, ptr, %struct.MemoryRegion, ptr, i32, i32, ptr, i64, i32, i32, ptr }
%struct.CharBackend = type { ptr, ptr, ptr, ptr, ptr, ptr, i32, i32 }

; Function Attrs: nounwind sspstrong uwtable
define internal i32 @ivshmem_IntrStatus_read(ptr noundef %s) #0 {
entry:
  %s.addr = alloca ptr, align 8
  %ret = alloca i32, align 4
  store ptr %s, ptr %s.addr, align 8
  %0 = load ptr, ptr %s.addr, align 8
  %intrstatus = getelementptr inbounds %struct.IVShmemState, ptr %0, i32 0, i32 5
  %1 = load i32, ptr %intrstatus, align 4
  store i32 %1, ptr %ret, align 4
  %2 = load ptr, ptr %s.addr, align 8
  %intrstatus1 = getelementptr inbounds %struct.IVShmemState, ptr %2, i32 0, i32 5
  store i32 0, ptr %intrstatus1, align 4
  %3 = load i32, ptr %ret, align 4
  ret i32 %3
}

; Function Attrs: nounwind sspstrong uwtable
define internal i32 @ivshmem_IntrMask_read(ptr noundef %s) #0 {
entry:
  %s.addr = alloca ptr, align 8
  %ret = alloca i32, align 4
  store ptr %s, ptr %s.addr, align 8
  %0 = load ptr, ptr %s.addr, align 8
  %intrmask = getelementptr inbounds %struct.IVShmemState, ptr %0, i32 0, i32 4
  %1 = load i32, ptr %intrmask, align 8
  store i32 %1, ptr %ret, align 4
  br label %do.body

do.body:                                          ; preds = %entry
  br label %do.end

do.end:                                           ; preds = %do.body
  %2 = load i32, ptr %ret, align 4
  ret i32 %2
}

; Function Attrs: nounwind sspstrong uwtable
define internal i64 @ivshmem_io_read(ptr noundef %opaque, i64 noundef %addr, i32 noundef %size) #0 {
entry:
  %opaque.addr = alloca ptr, align 8
  %addr.addr = alloca i64, align 8
  %size.addr = alloca i32, align 4
  %s = alloca ptr, align 8
  %ret = alloca i32, align 4
  store ptr %opaque, ptr %opaque.addr, align 8
  store i64 %addr, ptr %addr.addr, align 8
  store i32 %size, ptr %size.addr, align 4
  %0 = load ptr, ptr %opaque.addr, align 8
  store ptr %0, ptr %s, align 8
  %1 = load i64, ptr %addr.addr, align 8
  switch i64 %1, label %sw.default [
    i64 0, label %sw.bb
    i64 4, label %sw.bb1
    i64 8, label %sw.bb3
  ]

sw.bb:                                            ; preds = %entry
  %2 = load ptr, ptr %s, align 8
  %call = call i32 @ivshmem_IntrMask_read(ptr noundef %2)
  store i32 %call, ptr %ret, align 4
  br label %sw.epilog

sw.bb1:                                           ; preds = %entry
  %3 = load ptr, ptr %s, align 8
  %call2 = call i32 @ivshmem_IntrStatus_read(ptr noundef %3)
  store i32 %call2, ptr %ret, align 4
  br label %sw.epilog

sw.bb3:                                           ; preds = %entry
  %4 = load ptr, ptr %s, align 8
  %vm_id = getelementptr inbounds %struct.IVShmemState, ptr %4, i32 0, i32 6
  %5 = load i32, ptr %vm_id, align 16
  store i32 %5, ptr %ret, align 4
  br label %sw.epilog

sw.default:                                       ; preds = %entry
  br label %do.body

do.body:                                          ; preds = %sw.default
  br label %do.end

do.end:                                           ; preds = %do.body
  store i32 0, ptr %ret, align 4
  br label %sw.epilog

sw.epilog:                                        ; preds = %do.end, %sw.bb3, %sw.bb1, %sw.bb
  %6 = load i32, ptr %ret, align 4
  %conv = zext i32 %6 to i64
  ret i64 %conv
}