; Function Attrs: mustprogress nofree norecurse nosync nounwind sspstrong willreturn memory(argmem: readwrite) uwtable
define internal range(i64 0, 4294967296) i64 @ivshmem_io_read(ptr noundef captures(none) %opaque, i64 noundef %addr, i32 %size) #3 {
entry:
  switch i64 %addr, label %sw.epilog [
    i64 0, label %sw.bb
    i64 4, label %sw.bb1
    i64 8, label %sw.bb3
  ]

sw.bb:                                            ; preds = %entry
  %0 = getelementptr i8, ptr %opaque, i64 2680
  %opaque.val = load i32, ptr %0, align 8
  br label %sw.epilog

sw.bb1:                                           ; preds = %entry
  %intrstatus.i = getelementptr inbounds nuw i8, ptr %opaque, i64 2684
  %1 = load i32, ptr %intrstatus.i, align 4
  store i32 0, ptr %intrstatus.i, align 4
  br label %sw.epilog

sw.bb3:                                           ; preds = %entry
  %vm_id = getelementptr inbounds nuw i8, ptr %opaque, i64 2688
  %2 = load i32, ptr %vm_id, align 16
  br label %sw.epilog

sw.epilog:                                        ; preds = %entry, %sw.bb3, %sw.bb1, %sw.bb
  %ret.0 = phi i32 [ %2, %sw.bb3 ], [ %1, %sw.bb1 ], [ %opaque.val, %sw.bb ], [ 0, %entry ]
  %conv = zext i32 %ret.0 to i64
  ret i64 %conv
}